target datalayout = "e-m:e-p270:32:32-p271:32:32-p272:64:64-i64:64-i128:128-f80:128-n8:16:32:64-S128"
target triple = "x86_64-pc-linux-gnu"

%struct.Qureg = type { i32, i32, i32, i64, i64, i32, i32, %struct.ComplexArray, %struct.ComplexArray, %struct.ComplexArray, ptr, ptr, ptr, ptr, ptr, ptr }
%struct.ComplexArray = type { ptr, ptr }

@__func__.applyPhaseFunc = private unnamed_addr constant [15 x i8] c"applyPhaseFunc\00", align 1

; Function Attrs: nounwind uwtable
define void @applyPhaseFunc(ptr noundef byval(%struct.Qureg) align 8 %0, ptr noundef %1, i32 noundef %2, i32 noundef %3, ptr noundef %4, ptr noundef %5, i32 noundef %6) #0 {
  %8 = alloca ptr, align 8
  %9 = alloca i32, align 4
  %10 = alloca i32, align 4
  %11 = alloca ptr, align 8
  %12 = alloca ptr, align 8
  %13 = alloca i32, align 4
  %14 = alloca i32, align 4
  store ptr %1, ptr %8, align 8, !tbaa !27
  store i32 %2, ptr %9, align 4, !tbaa !4
  store i32 %3, ptr %10, align 4, !tbaa !4
  store ptr %4, ptr %11, align 8, !tbaa !23
  store ptr %5, ptr %12, align 8, !tbaa !23
  store i32 %6, ptr %13, align 4, !tbaa !4
  %15 = load ptr, ptr %8, align 8, !tbaa !27
  %16 = load i32, ptr %9, align 4, !tbaa !4
  call void @validateMultiQubits(ptr noundef byval(%struct.Qureg) align 8 %0, ptr noundef %15, i32 noundef %16, ptr noundef @__func__.applyPhaseFunc)
  %17 = load i32, ptr %9, align 4, !tbaa !4
  %18 = load i32, ptr %10, align 4, !tbaa !4
  call void @validateBitEncoding(i32 noundef %17, i32 noundef %18, ptr noundef @__func__.applyPhaseFunc)
  %19 = load i32, ptr %9, align 4, !tbaa !4
  %20 = load i32, ptr %10, align 4, !tbaa !4
  %21 = load ptr, ptr %11, align 8, !tbaa !23
  %22 = load ptr, ptr %12, align 8, !tbaa !23
  %23 = load i32, ptr %13, align 4, !tbaa !4
  call void @validatePhaseFuncTerms(i32 noundef %19, i32 noundef %20, ptr noundef %21, ptr noundef %22, i32 noundef %23, ptr noundef null, i32 noundef 0, ptr noundef @__func__.applyPhaseFunc)
  call void @llvm.lifetime.start.p0(i64 4, ptr %14) #7
  store i32 0, ptr %14, align 4, !tbaa !4
  %24 = load ptr, ptr %8, align 8, !tbaa !27
  %25 = load i32, ptr %9, align 4, !tbaa !4
  %26 = load i32, ptr %10, align 4, !tbaa !4
  %27 = load ptr, ptr %11, align 8, !tbaa !23
  %28 = load ptr, ptr %12, align 8, !tbaa !23
  %29 = load i32, ptr %13, align 4, !tbaa !4
  %30 = load i32, ptr %14, align 4, !tbaa !4
  call void @statevec_applyPhaseFuncOverrides(ptr noundef byval(%struct.Qureg) align 8 %0, ptr noundef %24, i32 noundef %25, i32 noundef %26, ptr noundef %27, ptr noundef %28, i32 noundef %29, ptr noundef null, ptr noundef null, i32 noundef 0, i32 noundef %30)
  %31 = getelementptr inbounds nuw %struct.Qureg, ptr %0, i32 0, i32 0
  %32 = load i32, ptr %31, align 8, !tbaa !13
  %33 = icmp ne i32 %32, 0
  br i1 %33, label %34, label %51

34:                                               ; preds = %7
  store i32 1, ptr %14, align 4, !tbaa !4
  %35 = load ptr, ptr %8, align 8, !tbaa !27
  %36 = load i32, ptr %9, align 4, !tbaa !4
  %37 = getelementptr inbounds nuw %struct.Qureg, ptr %0, i32 0, i32 1
  %38 = load i32, ptr %37, align 4, !tbaa !18
  call void @shiftIndices(ptr noundef %35, i32 noundef %36, i32 noundef %38)
  %39 = load ptr, ptr %8, align 8, !tbaa !27
  %40 = load i32, ptr %9, align 4, !tbaa !4
  %41 = load i32, ptr %10, align 4, !tbaa !4
  %42 = load ptr, ptr %11, align 8, !tbaa !23
  %43 = load ptr, ptr %12, align 8, !tbaa !23
  %44 = load i32, ptr %13, align 4, !tbaa !4
  %45 = load i32, ptr %14, align 4, !tbaa !4
  call void @statevec_applyPhaseFuncOverrides(ptr noundef byval(%struct.Qureg) align 8 %0, ptr noundef %39, i32 noundef %40, i32 noundef %41, ptr noundef %42, ptr noundef %43, i32 noundef %44, ptr noundef null, ptr noundef null, i32 noundef 0, i32 noundef %45)
  %46 = load ptr, ptr %8, align 8, !tbaa !27
  %47 = load i32, ptr %9, align 4, !tbaa !4
  %48 = getelementptr inbounds nuw %struct.Qureg, ptr %0, i32 0, i32 1
  %49 = load i32, ptr %48, align 4, !tbaa !18
  %50 = sub nsw i32 0, %49
  call void @shiftIndices(ptr noundef %46, i32 noundef %47, i32 noundef %50)
  br label %51

51:                                               ; preds = %34, %7
  %52 = load ptr, ptr %8, align 8, !tbaa !27
  %53 = load i32, ptr %9, align 4, !tbaa !4
  %54 = load i32, ptr %10, align 4, !tbaa !4
  %55 = load ptr, ptr %11, align 8, !tbaa !23
  %56 = load ptr, ptr %12, align 8, !tbaa !23
  %57 = load i32, ptr %13, align 4, !tbaa !4
  call void @qasm_recordPhaseFunc(ptr noundef byval(%struct.Qureg) align 8 %0, ptr noundef %52, i32 noundef %53, i32 noundef %54, ptr noundef %55, ptr noundef %56, i32 noundef %57, ptr noundef null, ptr noundef null, i32 noundef 0)
  call void @llvm.lifetime.end.p0(i64 4, ptr %14) #7
  ret void
}