; Function Attrs: nounwind uwtable
define void @applyPhaseFunc(ptr noundef readonly byval(%struct.Qureg) align 8 captures(none) %0, ptr noundef %1, i32 noundef %2, i32 noundef %3, ptr noundef %4, ptr noundef %5, i32 noundef %6) local_unnamed_addr #0 {
  tail call void @validateMultiQubits(ptr noundef nonnull byval(%struct.Qureg) align 8 %0, ptr noundef %1, i32 noundef %2, ptr noundef nonnull @__func__.applyPhaseFunc) #17
  tail call void @validateBitEncoding(i32 noundef %2, i32 noundef %3, ptr noundef nonnull @__func__.applyPhaseFunc) #17
  tail call void @validatePhaseFuncTerms(i32 noundef %2, i32 noundef %3, ptr noundef %4, ptr noundef %5, i32 noundef %6, ptr noundef null, i32 noundef 0, ptr noundef nonnull @__func__.applyPhaseFunc) #17
  tail call void @statevec_applyPhaseFuncOverrides(ptr noundef nonnull byval(%struct.Qureg) align 8 %0, ptr noundef %1, i32 noundef %2, i32 noundef %3, ptr noundef %4, ptr noundef %5, i32 noundef %6, ptr noundef null, ptr noundef null, i32 noundef 0, i32 noundef 0) #17
  %8 = load i32, ptr %0, align 8, !tbaa !12
  %.not = icmp eq i32 %8, 0
  br i1 %.not, label %13, label %9

9:                                                ; preds = %7
  %10 = getelementptr inbounds nuw i8, ptr %0, i64 4
  %11 = load i32, ptr %10, align 4, !tbaa !17
  tail call void @shiftIndices(ptr noundef %1, i32 noundef %2, i32 noundef %11) #17
  tail call void @statevec_applyPhaseFuncOverrides(ptr noundef nonnull byval(%struct.Qureg) align 8 %0, ptr noundef %1, i32 noundef %2, i32 noundef %3, ptr noundef %4, ptr noundef %5, i32 noundef %6, ptr noundef null, ptr noundef null, i32 noundef 0, i32 noundef 1) #17
  %12 = sub nsw i32 0, %11
  tail call void @shiftIndices(ptr noundef %1, i32 noundef %2, i32 noundef %12) #17
  br label %13

13:                                               ; preds = %9, %7
  tail call void @qasm_recordPhaseFunc(ptr noundef nonnull byval(%struct.Qureg) align 8 %0, ptr noundef %1, i32 noundef %2, i32 noundef %3, ptr noundef %4, ptr noundef %5, i32 noundef %6, ptr noundef null, ptr noundef null, i32 noundef 0) #17
  ret void
}